; Function Attrs: mustprogress uwtable
define noundef ptr @_ZN6google8protobuf8internal14ArenaStringPtr7MutableB5cxx11ERKNS1_10LazyStringEPNS0_5ArenaE(ptr noundef nonnull align 8 dereferenceable(8) %0, ptr noundef nonnull align 8 dereferenceable(40) %1, ptr noundef %2) local_unnamed_addr #3 align 2 personality ptr @__gxx_personality_v0 {
  %4 = load ptr, ptr %0, align 8, !tbaa !16
  %5 = icmp eq ptr %4, null
  br i1 %5, label %6, label %8

6:                                                ; preds = %3
  %7 = tail call noundef ptr @_ZN6google8protobuf8internal14ArenaStringPtr11MutableSlowIJNS1_10LazyStringEEEEPNSt7__cxx1112basic_stringIcSt11char_traitsIcESaIcEEEPNS0_5ArenaEDpRKT_(ptr noundef nonnull align 8 dereferenceable(8) %0, ptr noundef %2, ptr noundef nonnull align 8 dereferenceable(40) %1)
  br label %8

8:                                                ; preds = %3, %6
  %.0 = phi ptr [ %7, %6 ], [ %4, %3 ]
  ret ptr %.0
}